; Function Attrs: nounwind uwtable
define internal noundef i32 @lj_cf_package_unloadlib(ptr noundef %0) #0 {
  %2 = tail call ptr @luaL_checkudata(ptr noundef %0, i32 noundef 1, ptr noundef nonnull @.str) #7
  %3 = load ptr, ptr %2, align 8, !tbaa !4
  %.not = icmp eq ptr %3, null
  br i1 %.not, label %6, label %4

4:                                                ; preds = %1
  %5 = tail call i32 @dlclose(ptr noundef nonnull %3) #7
  br label %6

6:                                                ; preds = %4, %1
  store ptr null, ptr %2, align 8, !tbaa !4
  ret i32 0
}